target datalayout = "e-m:e-p270:32:32-p271:32:32-p272:64:64-i64:64-i128:128-f80:128-n8:16:32:64-S128"
target triple = "x86_64-pc-linux-gnu"

%struct.If_Box_t_ = type { ptr, i8, i8, i8, i8, i32, i32, i32, ptr }

; Function Attrs: nounwind uwtable
define void @If_BoxFree(ptr noundef %0) #0 {
  %2 = alloca ptr, align 8
  store ptr %0, ptr %2, align 8, !tbaa !10
  %3 = load ptr, ptr %2, align 8, !tbaa !10
  %4 = getelementptr inbounds nuw %struct.If_Box_t_, ptr %3, i32 0, i32 8
  %5 = load ptr, ptr %4, align 8, !tbaa !21
  %6 = icmp ne ptr %5, null
  br i1 %6, label %7, label %13

7:                                                ; preds = %1
  %8 = load ptr, ptr %2, align 8, !tbaa !10
  %9 = getelementptr inbounds nuw %struct.If_Box_t_, ptr %8, i32 0, i32 8
  %10 = load ptr, ptr %9, align 8, !tbaa !21
  call void @free(ptr noundef %10) #10
  %11 = load ptr, ptr %2, align 8, !tbaa !10
  %12 = getelementptr inbounds nuw %struct.If_Box_t_, ptr %11, i32 0, i32 8
  store ptr null, ptr %12, align 8, !tbaa !21
  br label %14

13:                                               ; preds = %1
  br label %14

14:                                               ; preds = %13, %7
  %15 = load ptr, ptr %2, align 8, !tbaa !10
  %16 = getelementptr inbounds nuw %struct.If_Box_t_, ptr %15, i32 0, i32 0
  %17 = load ptr, ptr %16, align 8, !tbaa !12
  %18 = icmp ne ptr %17, null
  br i1 %18, label %19, label %25

19:                                               ; preds = %14
  %20 = load ptr, ptr %2, align 8, !tbaa !10
  %21 = getelementptr inbounds nuw %struct.If_Box_t_, ptr %20, i32 0, i32 0
  %22 = load ptr, ptr %21, align 8, !tbaa !12
  call void @free(ptr noundef %22) #10
  %23 = load ptr, ptr %2, align 8, !tbaa !10
  %24 = getelementptr inbounds nuw %struct.If_Box_t_, ptr %23, i32 0, i32 0
  store ptr null, ptr %24, align 8, !tbaa !12
  br label %26

25:                                               ; preds = %14
  br label %26

26:                                               ; preds = %25, %19
  %27 = load ptr, ptr %2, align 8, !tbaa !10
  %28 = icmp ne ptr %27, null
  br i1 %28, label %29, label %31

29:                                               ; preds = %26
  %30 = load ptr, ptr %2, align 8, !tbaa !10
  call void @free(ptr noundef %30) #10
  store ptr null, ptr %2, align 8, !tbaa !10
  br label %32

31:                                               ; preds = %26
  br label %32

32:                                               ; preds = %31, %29
  ret void
}