; Function Attrs: mustprogress nounwind willreturn uwtable
define void @If_BoxFree(ptr noundef captures(none) %0) local_unnamed_addr #3 {
  %2 = getelementptr inbounds nuw i8, ptr %0, i64 24
  %3 = load ptr, ptr %2, align 8, !tbaa !17
  %.not = icmp eq ptr %3, null
  br i1 %.not, label %5, label %4

4:                                                ; preds = %1
  tail call void @free(ptr noundef nonnull %3) #19
  store ptr null, ptr %2, align 8, !tbaa !17
  br label %5

5:                                                ; preds = %1, %4
  %6 = load ptr, ptr %0, align 8, !tbaa !3
  %.not9 = icmp eq ptr %6, null
  br i1 %.not9, label %8, label %7

7:                                                ; preds = %5
  tail call void @free(ptr noundef nonnull %6) #19
  br label %8

8:                                                ; preds = %7, %5
  tail call void @free(ptr noundef nonnull %0) #19
  ret void
}